; Function Attrs: nounwind uwtable
define hidden void @zif_ob_get_status(ptr noundef readonly captures(none) %0, ptr noundef %1) local_unnamed_addr #0 {
  %3 = alloca i8, align 1
  call void @llvm.lifetime.start.p0(i64 1, ptr nonnull %3) #22
  store i8 0, ptr %3, align 1, !tbaa !114
  %4 = getelementptr inbounds nuw i8, ptr %0, i64 44
  %5 = load i32, ptr %4, align 4, !tbaa !8
  %6 = call i32 (i32, ptr, ...) @zend_parse_parameters(i32 noundef %5, ptr noundef nonnull @.str.14, ptr noundef nonnull %3) #22
  %7 = icmp eq i32 %6, -1
  br i1 %7, label %8, label %11

8:                                                ; preds = %2
  %9 = load ptr, ptr getelementptr inbounds nuw (i8, ptr @executor_globals, i64 960), align 8, !tbaa !112
  %10 = icmp ne ptr %9, null
  call void @llvm.assume(i1 %10)
  br label %24

11:                                               ; preds = %2
  %12 = load ptr, ptr getelementptr inbounds nuw (i8, ptr @output_globals, i64 24), align 8, !tbaa !46
  %.not = icmp eq ptr %12, null
  br i1 %.not, label %13, label %16

13:                                               ; preds = %11
  %14 = call ptr @_zend_new_array_0() #22
  store ptr %14, ptr %1, align 8, !tbaa !8
  %15 = getelementptr inbounds nuw i8, ptr %1, i64 8
  store i32 775, ptr %15, align 8, !tbaa !8
  br label %24

16:                                               ; preds = %11
  %17 = load i8, ptr %3, align 1, !tbaa !114, !range !115, !noundef !81
  %18 = trunc nuw i8 %17 to i1
  br i1 %18, label %19, label %22

19:                                               ; preds = %16
  %20 = call ptr @_zend_new_array_0() #22
  store ptr %20, ptr %1, align 8, !tbaa !8
  %21 = getelementptr inbounds nuw i8, ptr %1, i64 8
  store i32 775, ptr %21, align 8, !tbaa !8
  call void @zend_stack_apply_with_argument(ptr noundef nonnull @output_globals, i32 noundef 1, ptr noundef nonnull @php_output_stack_apply_status, ptr noundef nonnull %1) #22
  br label %24

22:                                               ; preds = %16
  %23 = call fastcc ptr @php_output_handler_status(ptr noundef nonnull %12, ptr noundef %1)
  br label %24

24:                                               ; preds = %19, %22, %13, %8
  call void @llvm.lifetime.end.p0(i64 1, ptr nonnull %3) #22
  ret void
}